; Listing generated by Microsoft (R) Optimizing Compiler Version 19.43.34808.0 

	TITLE	C:\Users\hayah\source\repos\Project2\Project2\co.obj
	.686P
	.XMM
	include listing.inc
	.model	flat

INCLUDELIB LIBCMT
INCLUDELIB OLDNAMES

PUBLIC	??0?$coroutine_handle@X@std@@QAE@XZ		; std::coroutine_handle<void>::coroutine_handle<void>
PUBLIC	?from_address@?$coroutine_handle@X@std@@SA?AU12@QAX@Z ; std::coroutine_handle<void>::from_address
PUBLIC	?await_ready@suspend_always@std@@QBE_NXZ	; std::suspend_always::await_ready
PUBLIC	?await_suspend@suspend_always@std@@QBEXU?$coroutine_handle@X@2@@Z ; std::suspend_always::await_suspend
PUBLIC	?await_resume@suspend_always@std@@QBEXXZ	; std::suspend_always::await_resume
PUBLIC	?begin_tx@@YA?AU?$Generator@H@@PAUThreadGC@@PAUCoroutineQueue@@@Z ; begin_tx
PUBLIC	??0?$coroutine_handle@Upromise_type@?$Generator@H@@@std@@QAE@XZ ; std::coroutine_handle<Generator<int>::promise_type>::coroutine_handle<Generator<int>::promise_type>
PUBLIC	?from_promise@?$coroutine_handle@Upromise_type@?$Generator@H@@@std@@SA?AU12@AAUpromise_type@?$Generator@H@@@Z ; std::coroutine_handle<Generator<int>::promise_type>::from_promise
PUBLIC	?from_address@?$coroutine_handle@Upromise_type@?$Generator@H@@@std@@SA?AU12@QAX@Z ; std::coroutine_handle<Generator<int>::promise_type>::from_address
PUBLIC	??B?$coroutine_handle@Upromise_type@?$Generator@H@@@std@@QBE?AU?$coroutine_handle@X@1@XZ ; std::coroutine_handle<Generator<int>::promise_type>::operator std::coroutine_handle<void>
PUBLIC	??B?$coroutine_handle@Upromise_type@?$Generator@H@@@std@@QBE_NXZ ; std::coroutine_handle<Generator<int>::promise_type>::operator bool
PUBLIC	?destroy@?$coroutine_handle@Upromise_type@?$Generator@H@@@std@@QBEXXZ ; std::coroutine_handle<Generator<int>::promise_type>::destroy
PUBLIC	??0?$Generator@H@@QAE@U?$coroutine_handle@Upromise_type@?$Generator@H@@@std@@@Z ; Generator<int>::Generator<int>
PUBLIC	??1?$Generator@H@@QAE@XZ			; Generator<int>::~Generator<int>
PUBLIC	?get_return_object@promise_type@?$Generator@H@@QAE?AU2@XZ ; Generator<int>::promise_type::get_return_object
PUBLIC	?initial_suspend@promise_type@?$Generator@H@@QAE?AUsuspend_always@std@@XZ ; Generator<int>::promise_type::initial_suspend
PUBLIC	?final_suspend@promise_type@?$Generator@H@@QAE?AUsuspend_always@std@@XZ ; Generator<int>::promise_type::final_suspend
PUBLIC	?return_void@promise_type@?$Generator@H@@QAEXXZ	; Generator<int>::promise_type::return_void
PUBLIC	?beginTransaction@@YA?AU?$coroutine_handle@Upromise_type@?$Generator@H@@@std@@PAUThreadGC@@PAUCoroutineQueue@@@Z ; beginTransaction
PUBLIC	_main
PUBLIC	??$addressof@Upromise_type@?$Generator@H@@@std@@YAPAUpromise_type@?$Generator@H@@AAU12@@Z ; std::addressof<Generator<int>::promise_type>
EXTRN	??2@YAPAXI@Z:PROC				; operator new
EXTRN	??3@YAXPAXI@Z:PROC				; operator delete
; Function compile flags: /Odtp
; File C:\Users\hayah\source\repos\Project2\Project2\co.cpp
_TEXT	SEGMENT
tv139 = -132						; size = 4
tv192 = -128						; size = 4
tv141 = -124						; size = 4
tv190 = -120						; size = 4
tv189 = -116						; size = 4
tv188 = -112						; size = 4
tv187 = -108						; size = 4
tv186 = -104						; size = 4
tv185 = -100						; size = 4
tv184 = -96						; size = 4
tv182 = -92						; size = 4
tv181 = -88						; size = 4
tv180 = -84						; size = 4
tv178 = -80						; size = 4
tv176 = -76						; size = 4
$T1 = -72						; size = 4
tv174 = -68						; size = 4
tv173 = -64						; size = 4
tv172 = -60						; size = 4
tv90 = -56						; size = 4
tv171 = -52						; size = 4
tv170 = -48						; size = 4
tv169 = -44						; size = 4
tv168 = -40						; size = 4
tv166 = -36						; size = 4
tv165 = -32						; size = 4
tv164 = -28						; size = 4
tv79 = -24						; size = 4
tv163 = -20						; size = 4
tv161 = -16						; size = 4
tv179 = -12						; size = 2
__$coroindex$ = -10					; size = 2
$T2 = -8						; size = 4
tv158 = -2						; size = 2
___coro_frame_ptr$ = 8					; size = 4
?begin_tx$_ResumeCoro$1@@YA?AU?$Generator@H@@PAUThreadGC@@PAUCoroutineQueue@@@Z PROC ; begin_tx$_ResumeCoro$1
  00000	55		 push	 ebp
  00001	8b ec		 mov	 ebp, esp
  00003	81 ec 84 00 00
	00		 sub	 esp, 132		; 00000084H
$__resumable_prolog_label:
  00009	b8 14 00 00 00	 mov	 eax, 20			; 00000014H
  0000e	03 45 08	 add	 eax, DWORD PTR ___coro_frame_ptr$[ebp]
  00011	89 45 f0	 mov	 DWORD PTR tv161[ebp], eax
  00014	8b 4d f0	 mov	 ecx, DWORD PTR tv161[ebp]
  00017	66 8b 11	 mov	 dx, WORD PTR [ecx]
  0001a	66 89 55 f6	 mov	 WORD PTR __$coroindex$[ebp], dx
  0001e	66 8b 45 f6	 mov	 ax, WORD PTR __$coroindex$[ebp]
  00022	66 89 45 fe	 mov	 WORD PTR tv158[ebp], ax
  00026	66 8b 4d fe	 mov	 cx, WORD PTR tv158[ebp]
  0002a	66 83 e9 ff	 sub	 cx, -1
  0002e	66 89 4d fe	 mov	 WORD PTR tv158[ebp], cx
  00032	66 83 7d fe 04	 cmp	 WORD PTR tv158[ebp], 4
  00037	0f 87 48 02 00
	00		 ja	 $__resumable_state_0
  0003d	0f bf 55 fe	 movsx	 edx, WORD PTR tv158[ebp]
  00041	ff 24 95 00 00
	00 00		 jmp	 DWORD PTR $LN29@begin_tx$_[edx*4]
$__resumable_state_3:
  00048	e9 87 01 00 00	 jmp	 $$__resumable_cancel_label$30
$__resumable_state_2:
  0004d	8b 4d 08	 mov	 ecx, DWORD PTR ___coro_frame_ptr$[ebp]
  00050	83 c1 09	 add	 ecx, 9
  00053	e8 00 00 00 00	 call	 ?await_resume@suspend_always@std@@QBEXXZ ; std::suspend_always::await_resume
  00058	90		 npad	 1

; 25   :     co_return;

  00059	8b 4d 08	 mov	 ecx, DWORD PTR ___coro_frame_ptr$[ebp]
  0005c	83 c1 08	 add	 ecx, 8
  0005f	e8 00 00 00 00	 call	 ?return_void@promise_type@?$Generator@H@@QAEXXZ ; Generator<int>::promise_type::return_void
  00064	90		 npad	 1
  00065	eb 0e		 jmp	 SHORT $LN3@begin_tx$_
  00067	eb 0c		 jmp	 SHORT $$__resumable_return_label$31

; 26   : }

  00069	8b 4d 08	 mov	 ecx, DWORD PTR ___coro_frame_ptr$[ebp]
  0006c	83 c1 08	 add	 ecx, 8
  0006f	e8 00 00 00 00	 call	 ?return_void@promise_type@?$Generator@H@@QAEXXZ ; Generator<int>::promise_type::return_void
  00074	90		 npad	 1
$LN3@begin_tx$_:
$$__resumable_return_label$31:
  00075	8b 45 08	 mov	 eax, DWORD PTR ___coro_frame_ptr$[ebp]
  00078	83 c0 08	 add	 eax, 8
  0007b	89 45 e8	 mov	 DWORD PTR tv79[ebp], eax
  0007e	b9 1c 00 00 00	 mov	 ecx, 28			; 0000001cH
  00083	03 4d 08	 add	 ecx, DWORD PTR ___coro_frame_ptr$[ebp]
  00086	89 4d ec	 mov	 DWORD PTR tv163[ebp], ecx
  00089	8b 55 ec	 mov	 edx, DWORD PTR tv163[ebp]
  0008c	52		 push	 edx
  0008d	8b 4d e8	 mov	 ecx, DWORD PTR tv79[ebp]
  00090	e8 00 00 00 00	 call	 ?final_suspend@promise_type@?$Generator@H@@QAE?AUsuspend_always@std@@XZ ; Generator<int>::promise_type::final_suspend
  00095	b9 18 00 00 00	 mov	 ecx, 24			; 00000018H
  0009a	03 4d 08	 add	 ecx, DWORD PTR ___coro_frame_ptr$[ebp]
  0009d	89 4d e4	 mov	 DWORD PTR tv164[ebp], ecx
  000a0	89 45 e0	 mov	 DWORD PTR tv165[ebp], eax
  000a3	8b 55 e4	 mov	 edx, DWORD PTR tv164[ebp]
  000a6	8b 45 e0	 mov	 eax, DWORD PTR tv165[ebp]
  000a9	89 02		 mov	 DWORD PTR [edx], eax
  000ab	b9 18 00 00 00	 mov	 ecx, 24			; 00000018H
  000b0	03 4d 08	 add	 ecx, DWORD PTR ___coro_frame_ptr$[ebp]
  000b3	89 4d dc	 mov	 DWORD PTR tv166[ebp], ecx
  000b6	8b 55 dc	 mov	 edx, DWORD PTR tv166[ebp]
  000b9	8b 02		 mov	 eax, DWORD PTR [edx]
  000bb	89 45 f8	 mov	 DWORD PTR $T2[ebp], eax
  000be	8b 4d f8	 mov	 ecx, DWORD PTR $T2[ebp]
  000c1	e8 00 00 00 00	 call	 ?await_ready@suspend_always@std@@QBE_NXZ ; std::suspend_always::await_ready
  000c6	0f b6 c8	 movzx	 ecx, al
  000c9	85 c9		 test	 ecx, ecx
  000cb	74 1f		 je	 SHORT $LN15@begin_tx$_
  000cd	ba 2c 00 00 00	 mov	 edx, 44			; 0000002cH
  000d2	03 55 08	 add	 edx, DWORD PTR ___coro_frame_ptr$[ebp]
  000d5	89 55 d8	 mov	 DWORD PTR tv168[ebp], edx
  000d8	c7 45 d4 00 00
	00 00		 mov	 DWORD PTR tv169[ebp], 0
  000df	8b 45 d8	 mov	 eax, DWORD PTR tv168[ebp]
  000e2	8b 4d d4	 mov	 ecx, DWORD PTR tv169[ebp]
  000e5	89 08		 mov	 DWORD PTR [eax], ecx
  000e7	e9 cc 00 00 00	 jmp	 $LN16@begin_tx$_
$LN15@begin_tx$_:
  000ec	8b 55 08	 mov	 edx, DWORD PTR ___coro_frame_ptr$[ebp]
  000ef	52		 push	 edx
  000f0	b8 20 00 00 00	 mov	 eax, 32			; 00000020H
  000f5	03 45 08	 add	 eax, DWORD PTR ___coro_frame_ptr$[ebp]
  000f8	89 45 d0	 mov	 DWORD PTR tv170[ebp], eax
  000fb	8b 4d d0	 mov	 ecx, DWORD PTR tv170[ebp]
  000fe	51		 push	 ecx
  000ff	e8 00 00 00 00	 call	 ?from_address@?$coroutine_handle@Upromise_type@?$Generator@H@@@std@@SA?AU12@QAX@Z ; std::coroutine_handle<Generator<int>::promise_type>::from_address
  00104	83 c4 08	 add	 esp, 8
  00107	89 45 c8	 mov	 DWORD PTR tv90[ebp], eax
  0010a	ba 24 00 00 00	 mov	 edx, 36			; 00000024H
  0010f	03 55 08	 add	 edx, DWORD PTR ___coro_frame_ptr$[ebp]
  00112	89 55 cc	 mov	 DWORD PTR tv171[ebp], edx
  00115	8b 45 cc	 mov	 eax, DWORD PTR tv171[ebp]
  00118	50		 push	 eax
  00119	8b 4d c8	 mov	 ecx, DWORD PTR tv90[ebp]
  0011c	e8 00 00 00 00	 call	 ??B?$coroutine_handle@Upromise_type@?$Generator@H@@@std@@QBE?AU?$coroutine_handle@X@1@XZ ; std::coroutine_handle<Generator<int>::promise_type>::operator std::coroutine_handle<void>
  00121	b9 28 00 00 00	 mov	 ecx, 40			; 00000028H
  00126	03 4d 08	 add	 ecx, DWORD PTR ___coro_frame_ptr$[ebp]
  00129	89 4d c4	 mov	 DWORD PTR tv172[ebp], ecx
  0012c	8b 10		 mov	 edx, DWORD PTR [eax]
  0012e	89 55 c0	 mov	 DWORD PTR tv173[ebp], edx
  00131	8b 45 c4	 mov	 eax, DWORD PTR tv172[ebp]
  00134	8b 4d c0	 mov	 ecx, DWORD PTR tv173[ebp]
  00137	89 08		 mov	 DWORD PTR [eax], ecx
  00139	ba 28 00 00 00	 mov	 edx, 40			; 00000028H
  0013e	03 55 08	 add	 edx, DWORD PTR ___coro_frame_ptr$[ebp]
  00141	89 55 bc	 mov	 DWORD PTR tv174[ebp], edx
  00144	8b 45 bc	 mov	 eax, DWORD PTR tv174[ebp]
  00147	8b 08		 mov	 ecx, DWORD PTR [eax]
  00149	89 4d b8	 mov	 DWORD PTR $T1[ebp], ecx
  0014c	8b 55 b8	 mov	 edx, DWORD PTR $T1[ebp]
  0014f	52		 push	 edx
  00150	b8 18 00 00 00	 mov	 eax, 24			; 00000018H
  00155	03 45 08	 add	 eax, DWORD PTR ___coro_frame_ptr$[ebp]
  00158	89 45 b4	 mov	 DWORD PTR tv176[ebp], eax
  0015b	8b 4d b4	 mov	 ecx, DWORD PTR tv176[ebp]
  0015e	8b 11		 mov	 edx, DWORD PTR [ecx]
  00160	89 55 f8	 mov	 DWORD PTR $T2[ebp], edx
  00163	b8 14 00 00 00	 mov	 eax, 20			; 00000014H
  00168	03 45 08	 add	 eax, DWORD PTR ___coro_frame_ptr$[ebp]
  0016b	89 45 b0	 mov	 DWORD PTR tv178[ebp], eax
  0016e	33 c9		 xor	 ecx, ecx
  00170	66 89 4d f4	 mov	 WORD PTR tv179[ebp], cx
  00174	8b 55 b0	 mov	 edx, DWORD PTR tv178[ebp]
  00177	66 8b 45 f4	 mov	 ax, WORD PTR tv179[ebp]
  0017b	66 89 02	 mov	 WORD PTR [edx], ax
  0017e	8b 4d 08	 mov	 ecx, DWORD PTR ___coro_frame_ptr$[ebp]
  00181	c7 01 00 00 00
	00		 mov	 DWORD PTR [ecx], 0
  00187	8b 4d f8	 mov	 ecx, DWORD PTR $T2[ebp]
  0018a	e8 00 00 00 00	 call	 ?await_suspend@suspend_always@std@@QBEXU?$coroutine_handle@X@2@@Z ; std::suspend_always::await_suspend
  0018f	90		 npad	 1
  00190	e9 f1 00 00 00	 jmp	 $__resumable_epilog_label
$__resumable_state_1:
  00195	eb 3d		 jmp	 SHORT $$__resumable_cancel_label$30
  00197	b9 08 00 00 00	 mov	 ecx, 8
  0019c	cd 29		 int	 41			; 00000029H
  0019e	ba 2c 00 00 00	 mov	 edx, 44			; 0000002cH
  001a3	03 55 08	 add	 edx, DWORD PTR ___coro_frame_ptr$[ebp]
  001a6	89 55 ac	 mov	 DWORD PTR tv180[ebp], edx
  001a9	c7 45 a8 00 00
	00 00		 mov	 DWORD PTR tv181[ebp], 0
  001b0	8b 45 ac	 mov	 eax, DWORD PTR tv180[ebp]
  001b3	8b 4d a8	 mov	 ecx, DWORD PTR tv181[ebp]
  001b6	89 08		 mov	 DWORD PTR [eax], ecx
$LN16@begin_tx$_:
  001b8	ba 18 00 00 00	 mov	 edx, 24			; 00000018H
  001bd	03 55 08	 add	 edx, DWORD PTR ___coro_frame_ptr$[ebp]
  001c0	89 55 a4	 mov	 DWORD PTR tv182[ebp], edx
  001c3	8b 45 a4	 mov	 eax, DWORD PTR tv182[ebp]
  001c6	8b 08		 mov	 ecx, DWORD PTR [eax]
  001c8	89 4d f8	 mov	 DWORD PTR $T2[ebp], ecx
  001cb	8b 4d f8	 mov	 ecx, DWORD PTR $T2[ebp]
  001ce	e8 00 00 00 00	 call	 ?await_resume@suspend_always@std@@QBEXXZ ; std::suspend_always::await_resume
  001d3	90		 npad	 1
$$__resumable_cancel_label$30:
  001d4	8b 55 08	 mov	 edx, DWORD PTR ___coro_frame_ptr$[ebp]
  001d7	0f b7 42 16	 movzx	 eax, WORD PTR [edx+22]
  001db	85 c0		 test	 eax, eax
  001dd	0f 84 a0 00 00
	00		 je	 $LN19@begin_tx$_
  001e3	b9 38 00 00 00	 mov	 ecx, 56			; 00000038H
  001e8	ba 34 00 00 00	 mov	 edx, 52			; 00000034H
  001ed	03 55 08	 add	 edx, DWORD PTR ___coro_frame_ptr$[ebp]
  001f0	89 55 a0	 mov	 DWORD PTR tv184[ebp], edx
  001f3	89 4d 9c	 mov	 DWORD PTR tv185[ebp], ecx
  001f6	8b 45 a0	 mov	 eax, DWORD PTR tv184[ebp]
  001f9	8b 4d 9c	 mov	 ecx, DWORD PTR tv185[ebp]
  001fc	89 08		 mov	 DWORD PTR [eax], ecx
  001fe	ba 08 00 00 00	 mov	 edx, 8
  00203	83 fa 08	 cmp	 edx, 8
  00206	76 26		 jbe	 SHORT $LN17@begin_tx$_
  00208	b8 04 00 00 00	 mov	 eax, 4
  0020d	6b c8 ff	 imul	 ecx, eax, -1
  00210	ba 30 00 00 00	 mov	 edx, 48			; 00000030H
  00215	03 55 08	 add	 edx, DWORD PTR ___coro_frame_ptr$[ebp]
  00218	89 55 98	 mov	 DWORD PTR tv186[ebp], edx
  0021b	8b 45 08	 mov	 eax, DWORD PTR ___coro_frame_ptr$[ebp]
  0021e	8b 0c 08	 mov	 ecx, DWORD PTR [eax+ecx]
  00221	89 4d 94	 mov	 DWORD PTR tv187[ebp], ecx
  00224	8b 55 98	 mov	 edx, DWORD PTR tv186[ebp]
  00227	8b 45 94	 mov	 eax, DWORD PTR tv187[ebp]
  0022a	89 02		 mov	 DWORD PTR [edx], eax
  0022c	eb 19		 jmp	 SHORT $LN18@begin_tx$_
$LN17@begin_tx$_:
  0022e	b9 30 00 00 00	 mov	 ecx, 48			; 00000030H
  00233	03 4d 08	 add	 ecx, DWORD PTR ___coro_frame_ptr$[ebp]
  00236	89 4d 90	 mov	 DWORD PTR tv188[ebp], ecx
  00239	8b 55 08	 mov	 edx, DWORD PTR ___coro_frame_ptr$[ebp]
  0023c	89 55 8c	 mov	 DWORD PTR tv189[ebp], edx
  0023f	8b 45 90	 mov	 eax, DWORD PTR tv188[ebp]
  00242	8b 4d 8c	 mov	 ecx, DWORD PTR tv189[ebp]
  00245	89 08		 mov	 DWORD PTR [eax], ecx
$LN18@begin_tx$_:
  00247	ba 34 00 00 00	 mov	 edx, 52			; 00000034H
  0024c	03 55 08	 add	 edx, DWORD PTR ___coro_frame_ptr$[ebp]
  0024f	89 55 88	 mov	 DWORD PTR tv190[ebp], edx
  00252	8b 45 88	 mov	 eax, DWORD PTR tv190[ebp]
  00255	8b 08		 mov	 ecx, DWORD PTR [eax]
  00257	89 4d 84	 mov	 DWORD PTR tv141[ebp], ecx
  0025a	8b 55 84	 mov	 edx, DWORD PTR tv141[ebp]
  0025d	52		 push	 edx
  0025e	b8 30 00 00 00	 mov	 eax, 48			; 00000030H
  00263	03 45 08	 add	 eax, DWORD PTR ___coro_frame_ptr$[ebp]
  00266	89 45 80	 mov	 DWORD PTR tv192[ebp], eax
  00269	8b 4d 80	 mov	 ecx, DWORD PTR tv192[ebp]
  0026c	8b 11		 mov	 edx, DWORD PTR [ecx]
  0026e	89 95 7c ff ff
	ff		 mov	 DWORD PTR tv139[ebp], edx
  00274	8b 85 7c ff ff
	ff		 mov	 eax, DWORD PTR tv139[ebp]
  0027a	50		 push	 eax
  0027b	e8 00 00 00 00	 call	 ??3@YAXPAXI@Z		; operator delete
  00280	83 c4 08	 add	 esp, 8
$LN19@begin_tx$_:
  00283	eb 01		 jmp	 SHORT $__resumable_epilog_label
$__resumable_state_0:
  00285	cc		 int	 3
$__resumable_epilog_label:
  00286	8b e5		 mov	 esp, ebp
  00288	5d		 pop	 ebp
  00289	c3		 ret	 0
  0028a	66 90		 npad	 2
$LN29@begin_tx$_:
  0028c	00 00 00 00	 DD	 $$__resumable_cancel_label$30
  00290	00 00 00 00	 DD	 $__resumable_state_0
  00294	00 00 00 00	 DD	 $__resumable_state_1
  00298	00 00 00 00	 DD	 $__resumable_state_2
  0029c	00 00 00 00	 DD	 $__resumable_state_3
?begin_tx$_ResumeCoro$1@@YA?AU?$Generator@H@@PAUThreadGC@@PAUCoroutineQueue@@@Z ENDP ; begin_tx$_ResumeCoro$1
_TEXT	ENDS
; Function compile flags: /Odtp
_TEXT	SEGMENT
tv64 = -4						; size = 4
___coro_frame_ptr$ = 8					; size = 4
?begin_tx$_DestroyCoro$2@@YA?AU?$Generator@H@@PAUThreadGC@@PAUCoroutineQueue@@@Z PROC ; begin_tx$_DestroyCoro$2
  00000	55		 push	 ebp
  00001	8b ec		 mov	 ebp, esp
  00003	51		 push	 ecx
; File C:\Users\hayah\source\repos\Project2\Project2\co.cpp
  00004	8b 45 08	 mov	 eax, DWORD PTR ___coro_frame_ptr$[ebp]
  00007	83 c0 14	 add	 eax, 20			; 00000014H
  0000a	89 45 fc	 mov	 DWORD PTR tv64[ebp], eax
  0000d	8b 4d fc	 mov	 ecx, DWORD PTR tv64[ebp]
  00010	8b 11		 mov	 edx, DWORD PTR [ecx]
  00012	83 ca 01	 or	 edx, 1
  00015	8b 45 fc	 mov	 eax, DWORD PTR tv64[ebp]
  00018	89 10		 mov	 DWORD PTR [eax], edx
  0001a	8b 4d 08	 mov	 ecx, DWORD PTR ___coro_frame_ptr$[ebp]
  0001d	51		 push	 ecx
  0001e	e8 00 00 00 00	 call	 ?begin_tx$_ResumeCoro$1@@YA?AU?$Generator@H@@PAUThreadGC@@PAUCoroutineQueue@@@Z ; begin_tx$_ResumeCoro$1
  00023	83 c4 04	 add	 esp, 4
  00026	8b e5		 mov	 esp, ebp
  00028	5d		 pop	 ebp
  00029	c3		 ret	 0
?begin_tx$_DestroyCoro$2@@YA?AU?$Generator@H@@PAUThreadGC@@PAUCoroutineQueue@@@Z ENDP ; begin_tx$_DestroyCoro$2
_TEXT	ENDS
; Function compile flags: /Odtp
; File C:\Program Files\Microsoft Visual Studio\2022\Community\VC\Tools\MSVC\14.43.34808\include\type_traits
;	COMDAT ??$addressof@Upromise_type@?$Generator@H@@@std@@YAPAUpromise_type@?$Generator@H@@AAU12@@Z
_TEXT	SEGMENT
__Val$ = 8						; size = 4
??$addressof@Upromise_type@?$Generator@H@@@std@@YAPAUpromise_type@?$Generator@H@@AAU12@@Z PROC ; std::addressof<Generator<int>::promise_type>, COMDAT

; 1550 : _NODISCARD constexpr _Ty* addressof(_Ty& _Val) noexcept {

  00000	55		 push	 ebp
  00001	8b ec		 mov	 ebp, esp

; 1551 :     return __builtin_addressof(_Val);

  00003	8b 45 08	 mov	 eax, DWORD PTR __Val$[ebp]

; 1552 : }

  00006	5d		 pop	 ebp
  00007	c3		 ret	 0
??$addressof@Upromise_type@?$Generator@H@@@std@@YAPAUpromise_type@?$Generator@H@@AAU12@@Z ENDP ; std::addressof<Generator<int>::promise_type>
_TEXT	ENDS
; Function compile flags: /Odtp
; File C:\Users\hayah\source\repos\Project2\Project2\co.cpp
_TEXT	SEGMENT
$T1 = -8						; size = 4
_t$ = -2						; size = 1
_q$ = -1						; size = 1
_main	PROC

; 33   : int main() {

  00000	55		 push	 ebp
  00001	8b ec		 mov	 ebp, esp
  00003	83 ec 08	 sub	 esp, 8

; 34   :     ThreadGC t;
; 35   :     CoroutineQueue q;
; 36   :     beginTransaction(&t, &q);

  00006	8d 45 ff	 lea	 eax, DWORD PTR _q$[ebp]
  00009	50		 push	 eax
  0000a	8d 4d fe	 lea	 ecx, DWORD PTR _t$[ebp]
  0000d	51		 push	 ecx
  0000e	8d 55 f8	 lea	 edx, DWORD PTR $T1[ebp]
  00011	52		 push	 edx
  00012	e8 00 00 00 00	 call	 ?beginTransaction@@YA?AU?$coroutine_handle@Upromise_type@?$Generator@H@@@std@@PAUThreadGC@@PAUCoroutineQueue@@@Z ; beginTransaction
  00017	83 c4 0c	 add	 esp, 12			; 0000000cH

; 37   : }

  0001a	33 c0		 xor	 eax, eax
  0001c	8b e5		 mov	 esp, ebp
  0001e	5d		 pop	 ebp
  0001f	c3		 ret	 0
_main	ENDP
_TEXT	ENDS
; Function compile flags: /Odtp
; File C:\Users\hayah\source\repos\Project2\Project2\co.cpp
_TEXT	SEGMENT
$T1 = -4						; size = 4
___$ReturnUdt$ = 8					; size = 4
_thgc$ = 12						; size = 4
_queue$ = 16						; size = 4
?beginTransaction@@YA?AU?$coroutine_handle@Upromise_type@?$Generator@H@@@std@@PAUThreadGC@@PAUCoroutineQueue@@@Z PROC ; beginTransaction

; 29   : beginTransaction(ThreadGC* thgc, CoroutineQueue* queue) {

  00000	55		 push	 ebp
  00001	8b ec		 mov	 ebp, esp
  00003	51		 push	 ecx

; 30   :     return begin_tx(thgc, queue).coro;

  00004	8b 45 10	 mov	 eax, DWORD PTR _queue$[ebp]
  00007	50		 push	 eax
  00008	8b 4d 0c	 mov	 ecx, DWORD PTR _thgc$[ebp]
  0000b	51		 push	 ecx
  0000c	8d 55 fc	 lea	 edx, DWORD PTR $T1[ebp]
  0000f	52		 push	 edx
  00010	e8 00 00 00 00	 call	 ?begin_tx@@YA?AU?$Generator@H@@PAUThreadGC@@PAUCoroutineQueue@@@Z ; begin_tx
  00015	83 c4 0c	 add	 esp, 12			; 0000000cH
  00018	8b 00		 mov	 eax, DWORD PTR [eax]
  0001a	8b 4d 08	 mov	 ecx, DWORD PTR ___$ReturnUdt$[ebp]
  0001d	89 01		 mov	 DWORD PTR [ecx], eax
  0001f	8d 4d fc	 lea	 ecx, DWORD PTR $T1[ebp]
  00022	e8 00 00 00 00	 call	 ??1?$Generator@H@@QAE@XZ ; Generator<int>::~Generator<int>
  00027	90		 npad	 1
  00028	8b 45 08	 mov	 eax, DWORD PTR ___$ReturnUdt$[ebp]

; 31   : }

  0002b	8b e5		 mov	 esp, ebp
  0002d	5d		 pop	 ebp
  0002e	c3		 ret	 0
?beginTransaction@@YA?AU?$coroutine_handle@Upromise_type@?$Generator@H@@@std@@PAUThreadGC@@PAUCoroutineQueue@@@Z ENDP ; beginTransaction
_TEXT	ENDS
; Function compile flags: /Odtp
_TEXT	SEGMENT
_this$ = -4						; size = 4
_$FP2$ = 8						; size = 4
_$FP3$ = 12						; size = 4
??0<parameters>@?2??begin_tx@@YA?AU?$Generator@H@@PAUThreadGC@@PAUCoroutineQueue@@@Z@QAE@01@Z PROC ; `begin_tx'::`3'::<parameters>::<parameters>
; _this$ = ecx
  00000	55		 push	 ebp
  00001	8b ec		 mov	 ebp, esp
  00003	51		 push	 ecx
  00004	89 4d fc	 mov	 DWORD PTR _this$[ebp], ecx
  00007	8b 45 fc	 mov	 eax, DWORD PTR _this$[ebp]
  0000a	8b 4d 08	 mov	 ecx, DWORD PTR _$FP2$[ebp]
  0000d	89 08		 mov	 DWORD PTR [eax], ecx
  0000f	8b 55 fc	 mov	 edx, DWORD PTR _this$[ebp]
  00012	8b 45 0c	 mov	 eax, DWORD PTR _$FP3$[ebp]
  00015	89 42 04	 mov	 DWORD PTR [edx+4], eax
  00018	8b 45 fc	 mov	 eax, DWORD PTR _this$[ebp]
  0001b	8b e5		 mov	 esp, ebp
  0001d	5d		 pop	 ebp
  0001e	c2 08 00	 ret	 8
??0<parameters>@?2??begin_tx@@YA?AU?$Generator@H@@PAUThreadGC@@PAUCoroutineQueue@@@Z@QAE@01@Z ENDP ; `begin_tx'::`3'::<parameters>::<parameters>
_TEXT	ENDS
; Function compile flags: /Odtp
; File C:\Users\hayah\source\repos\Project2\Project2\co.cpp
;	COMDAT ?return_void@promise_type@?$Generator@H@@QAEXXZ
_TEXT	SEGMENT
_this$ = -4						; size = 4
?return_void@promise_type@?$Generator@H@@QAEXXZ PROC	; Generator<int>::promise_type::return_void, COMDAT
; _this$ = ecx

; 10   :         void return_void() noexcept {}

  00000	55		 push	 ebp
  00001	8b ec		 mov	 ebp, esp
  00003	51		 push	 ecx
  00004	89 4d fc	 mov	 DWORD PTR _this$[ebp], ecx
  00007	8b e5		 mov	 esp, ebp
  00009	5d		 pop	 ebp
  0000a	c3		 ret	 0
?return_void@promise_type@?$Generator@H@@QAEXXZ ENDP	; Generator<int>::promise_type::return_void
_TEXT	ENDS
; Function compile flags: /Odtp
; File C:\Users\hayah\source\repos\Project2\Project2\co.cpp
;	COMDAT ?final_suspend@promise_type@?$Generator@H@@QAE?AUsuspend_always@std@@XZ
_TEXT	SEGMENT
_this$ = -4						; size = 4
___$ReturnUdt$ = 8					; size = 4
?final_suspend@promise_type@?$Generator@H@@QAE?AUsuspend_always@std@@XZ PROC ; Generator<int>::promise_type::final_suspend, COMDAT
; _this$ = ecx

; 9    :         std::suspend_always final_suspend() noexcept { return {}; }

  00000	55		 push	 ebp
  00001	8b ec		 mov	 ebp, esp
  00003	51		 push	 ecx
  00004	89 4d fc	 mov	 DWORD PTR _this$[ebp], ecx
  00007	33 c0		 xor	 eax, eax
  00009	8b 4d 08	 mov	 ecx, DWORD PTR ___$ReturnUdt$[ebp]
  0000c	88 01		 mov	 BYTE PTR [ecx], al
  0000e	8b 45 08	 mov	 eax, DWORD PTR ___$ReturnUdt$[ebp]
  00011	8b e5		 mov	 esp, ebp
  00013	5d		 pop	 ebp
  00014	c2 04 00	 ret	 4
?final_suspend@promise_type@?$Generator@H@@QAE?AUsuspend_always@std@@XZ ENDP ; Generator<int>::promise_type::final_suspend
_TEXT	ENDS
; Function compile flags: /Odtp
; File C:\Users\hayah\source\repos\Project2\Project2\co.cpp
;	COMDAT ?initial_suspend@promise_type@?$Generator@H@@QAE?AUsuspend_always@std@@XZ
_TEXT	SEGMENT
_this$ = -4						; size = 4
___$ReturnUdt$ = 8					; size = 4
?initial_suspend@promise_type@?$Generator@H@@QAE?AUsuspend_always@std@@XZ PROC ; Generator<int>::promise_type::initial_suspend, COMDAT
; _this$ = ecx

; 8    :         std::suspend_always initial_suspend() noexcept { return {}; }

  00000	55		 push	 ebp
  00001	8b ec		 mov	 ebp, esp
  00003	51		 push	 ecx
  00004	89 4d fc	 mov	 DWORD PTR _this$[ebp], ecx
  00007	33 c0		 xor	 eax, eax
  00009	8b 4d 08	 mov	 ecx, DWORD PTR ___$ReturnUdt$[ebp]
  0000c	88 01		 mov	 BYTE PTR [ecx], al
  0000e	8b 45 08	 mov	 eax, DWORD PTR ___$ReturnUdt$[ebp]
  00011	8b e5		 mov	 esp, ebp
  00013	5d		 pop	 ebp
  00014	c2 04 00	 ret	 4
?initial_suspend@promise_type@?$Generator@H@@QAE?AUsuspend_always@std@@XZ ENDP ; Generator<int>::promise_type::initial_suspend
_TEXT	ENDS
; Function compile flags: /Odtp
; File C:\Users\hayah\source\repos\Project2\Project2\co.cpp
;	COMDAT ?get_return_object@promise_type@?$Generator@H@@QAE?AU2@XZ
_TEXT	SEGMENT
$T1 = -8						; size = 4
_this$ = -4						; size = 4
___$ReturnUdt$ = 8					; size = 4
?get_return_object@promise_type@?$Generator@H@@QAE?AU2@XZ PROC ; Generator<int>::promise_type::get_return_object, COMDAT
; _this$ = ecx

; 7    :         Generator get_return_object() { return Generator{ std::coroutine_handle<promise_type>::from_promise(*this) }; }

  00000	55		 push	 ebp
  00001	8b ec		 mov	 ebp, esp
  00003	83 ec 08	 sub	 esp, 8
  00006	89 4d fc	 mov	 DWORD PTR _this$[ebp], ecx
  00009	8b 45 fc	 mov	 eax, DWORD PTR _this$[ebp]
  0000c	50		 push	 eax
  0000d	8d 4d f8	 lea	 ecx, DWORD PTR $T1[ebp]
  00010	51		 push	 ecx
  00011	e8 00 00 00 00	 call	 ?from_promise@?$coroutine_handle@Upromise_type@?$Generator@H@@@std@@SA?AU12@AAUpromise_type@?$Generator@H@@@Z ; std::coroutine_handle<Generator<int>::promise_type>::from_promise
  00016	83 c4 08	 add	 esp, 8
  00019	8b 10		 mov	 edx, DWORD PTR [eax]
  0001b	52		 push	 edx
  0001c	8b 4d 08	 mov	 ecx, DWORD PTR ___$ReturnUdt$[ebp]
  0001f	e8 00 00 00 00	 call	 ??0?$Generator@H@@QAE@U?$coroutine_handle@Upromise_type@?$Generator@H@@@std@@@Z ; Generator<int>::Generator<int>
  00024	90		 npad	 1
  00025	8b 45 08	 mov	 eax, DWORD PTR ___$ReturnUdt$[ebp]
  00028	8b e5		 mov	 esp, ebp
  0002a	5d		 pop	 ebp
  0002b	c2 04 00	 ret	 4
?get_return_object@promise_type@?$Generator@H@@QAE?AU2@XZ ENDP ; Generator<int>::promise_type::get_return_object
_TEXT	ENDS
; Function compile flags: /Odtp
; File C:\Users\hayah\source\repos\Project2\Project2\co.cpp
;	COMDAT ??1?$Generator@H@@QAE@XZ
_TEXT	SEGMENT
_this$ = -4						; size = 4
??1?$Generator@H@@QAE@XZ PROC				; Generator<int>::~Generator<int>, COMDAT
; _this$ = ecx

; 18   :     ~Generator() { if (coro) coro.destroy(); }

  00000	55		 push	 ebp
  00001	8b ec		 mov	 ebp, esp
  00003	51		 push	 ecx
  00004	89 4d fc	 mov	 DWORD PTR _this$[ebp], ecx
  00007	8b 4d fc	 mov	 ecx, DWORD PTR _this$[ebp]
  0000a	e8 00 00 00 00	 call	 ??B?$coroutine_handle@Upromise_type@?$Generator@H@@@std@@QBE_NXZ ; std::coroutine_handle<Generator<int>::promise_type>::operator bool
  0000f	0f b6 c0	 movzx	 eax, al
  00012	85 c0		 test	 eax, eax
  00014	74 09		 je	 SHORT $LN2@Generator
  00016	8b 4d fc	 mov	 ecx, DWORD PTR _this$[ebp]
  00019	e8 00 00 00 00	 call	 ?destroy@?$coroutine_handle@Upromise_type@?$Generator@H@@@std@@QBEXXZ ; std::coroutine_handle<Generator<int>::promise_type>::destroy
  0001e	90		 npad	 1
$LN2@Generator:
  0001f	8b e5		 mov	 esp, ebp
  00021	5d		 pop	 ebp
  00022	c3		 ret	 0
??1?$Generator@H@@QAE@XZ ENDP				; Generator<int>::~Generator<int>
_TEXT	ENDS
; Function compile flags: /Odtp
; File C:\Users\hayah\source\repos\Project2\Project2\co.cpp
;	COMDAT ??0?$Generator@H@@QAE@U?$coroutine_handle@Upromise_type@?$Generator@H@@@std@@@Z
_TEXT	SEGMENT
_this$ = -4						; size = 4
_h$ = 8							; size = 4
??0?$Generator@H@@QAE@U?$coroutine_handle@Upromise_type@?$Generator@H@@@std@@@Z PROC ; Generator<int>::Generator<int>, COMDAT
; _this$ = ecx

; 17   :     Generator(handle_type h) : coro(h) {}

  00000	55		 push	 ebp
  00001	8b ec		 mov	 ebp, esp
  00003	51		 push	 ecx
  00004	89 4d fc	 mov	 DWORD PTR _this$[ebp], ecx
  00007	8b 45 fc	 mov	 eax, DWORD PTR _this$[ebp]
  0000a	8b 4d 08	 mov	 ecx, DWORD PTR _h$[ebp]
  0000d	89 08		 mov	 DWORD PTR [eax], ecx
  0000f	8b 45 fc	 mov	 eax, DWORD PTR _this$[ebp]
  00012	8b e5		 mov	 esp, ebp
  00014	5d		 pop	 ebp
  00015	c2 04 00	 ret	 4
??0?$Generator@H@@QAE@U?$coroutine_handle@Upromise_type@?$Generator@H@@@std@@@Z ENDP ; Generator<int>::Generator<int>
_TEXT	ENDS
; Function compile flags: /Odtp
; File C:\Program Files\Microsoft Visual Studio\2022\Community\VC\Tools\MSVC\14.43.34808\include\coroutine
;	COMDAT ?destroy@?$coroutine_handle@Upromise_type@?$Generator@H@@@std@@QBEXXZ
_TEXT	SEGMENT
tv67 = -16						; size = 4
tv66 = -12						; size = 4
_this$ = -8						; size = 4
tv64 = -4						; size = 4
?destroy@?$coroutine_handle@Upromise_type@?$Generator@H@@@std@@QBEXXZ PROC ; std::coroutine_handle<Generator<int>::promise_type>::destroy, COMDAT
; _this$ = ecx

; 143  :     void destroy() const noexcept { // strengthened

  00000	55		 push	 ebp
  00001	8b ec		 mov	 ebp, esp
  00003	83 ec 10	 sub	 esp, 16			; 00000010H
  00006	89 4d f8	 mov	 DWORD PTR _this$[ebp], ecx

; 144  :         __builtin_coro_destroy(_Ptr);

  00009	8b 45 f8	 mov	 eax, DWORD PTR _this$[ebp]
  0000c	89 45 fc	 mov	 DWORD PTR tv64[ebp], eax
  0000f	8b 4d fc	 mov	 ecx, DWORD PTR tv64[ebp]
  00012	8b 11		 mov	 edx, DWORD PTR [ecx]
  00014	89 55 f4	 mov	 DWORD PTR tv66[ebp], edx
  00017	8b 45 f4	 mov	 eax, DWORD PTR tv66[ebp]
  0001a	83 c0 04	 add	 eax, 4
  0001d	89 45 f0	 mov	 DWORD PTR tv67[ebp], eax
  00020	8b 4d fc	 mov	 ecx, DWORD PTR tv64[ebp]
  00023	8b 11		 mov	 edx, DWORD PTR [ecx]
  00025	52		 push	 edx
  00026	8b 45 f0	 mov	 eax, DWORD PTR tv67[ebp]
  00029	8b 08		 mov	 ecx, DWORD PTR [eax]
  0002b	ff d1		 call	 ecx
  0002d	83 c4 04	 add	 esp, 4

; 145  :     }

  00030	8b e5		 mov	 esp, ebp
  00032	5d		 pop	 ebp
  00033	c3		 ret	 0
?destroy@?$coroutine_handle@Upromise_type@?$Generator@H@@@std@@QBEXXZ ENDP ; std::coroutine_handle<Generator<int>::promise_type>::destroy
_TEXT	ENDS
; Function compile flags: /Odtp
; File C:\Program Files\Microsoft Visual Studio\2022\Community\VC\Tools\MSVC\14.43.34808\include\coroutine
;	COMDAT ??B?$coroutine_handle@Upromise_type@?$Generator@H@@@std@@QBE_NXZ
_TEXT	SEGMENT
_this$ = -8						; size = 4
tv66 = -4						; size = 4
??B?$coroutine_handle@Upromise_type@?$Generator@H@@@std@@QBE_NXZ PROC ; std::coroutine_handle<Generator<int>::promise_type>::operator bool, COMDAT
; _this$ = ecx

; 127  :     constexpr explicit operator bool() const noexcept {

  00000	55		 push	 ebp
  00001	8b ec		 mov	 ebp, esp
  00003	83 ec 08	 sub	 esp, 8
  00006	89 4d f8	 mov	 DWORD PTR _this$[ebp], ecx

; 128  :         return _Ptr != nullptr;

  00009	8b 45 f8	 mov	 eax, DWORD PTR _this$[ebp]
  0000c	83 38 00	 cmp	 DWORD PTR [eax], 0
  0000f	74 09		 je	 SHORT $LN3@operator
  00011	c7 45 fc 01 00
	00 00		 mov	 DWORD PTR tv66[ebp], 1
  00018	eb 07		 jmp	 SHORT $LN4@operator
$LN3@operator:
  0001a	c7 45 fc 00 00
	00 00		 mov	 DWORD PTR tv66[ebp], 0
$LN4@operator:
  00021	0f b6 45 fc	 movzx	 eax, BYTE PTR tv66[ebp]

; 129  :     }

  00025	8b e5		 mov	 esp, ebp
  00027	5d		 pop	 ebp
  00028	c3		 ret	 0
??B?$coroutine_handle@Upromise_type@?$Generator@H@@@std@@QBE_NXZ ENDP ; std::coroutine_handle<Generator<int>::promise_type>::operator bool
_TEXT	ENDS
; Function compile flags: /Odtp
; File C:\Program Files\Microsoft Visual Studio\2022\Community\VC\Tools\MSVC\14.43.34808\include\coroutine
;	COMDAT ??B?$coroutine_handle@Upromise_type@?$Generator@H@@@std@@QBE?AU?$coroutine_handle@X@1@XZ
_TEXT	SEGMENT
_this$ = -4						; size = 4
___$ReturnUdt$ = 8					; size = 4
??B?$coroutine_handle@Upromise_type@?$Generator@H@@@std@@QBE?AU?$coroutine_handle@X@1@XZ PROC ; std::coroutine_handle<Generator<int>::promise_type>::operator std::coroutine_handle<void>, COMDAT
; _this$ = ecx

; 123  :     constexpr operator coroutine_handle<>() const noexcept {

  00000	55		 push	 ebp
  00001	8b ec		 mov	 ebp, esp
  00003	51		 push	 ecx
  00004	89 4d fc	 mov	 DWORD PTR _this$[ebp], ecx

; 124  :         return coroutine_handle<>::from_address(_Ptr);

  00007	8b 45 fc	 mov	 eax, DWORD PTR _this$[ebp]
  0000a	8b 08		 mov	 ecx, DWORD PTR [eax]
  0000c	51		 push	 ecx
  0000d	8b 55 08	 mov	 edx, DWORD PTR ___$ReturnUdt$[ebp]
  00010	52		 push	 edx
  00011	e8 00 00 00 00	 call	 ?from_address@?$coroutine_handle@X@std@@SA?AU12@QAX@Z ; std::coroutine_handle<void>::from_address
  00016	83 c4 08	 add	 esp, 8
  00019	8b 45 08	 mov	 eax, DWORD PTR ___$ReturnUdt$[ebp]

; 125  :     }

  0001c	8b e5		 mov	 esp, ebp
  0001e	5d		 pop	 ebp
  0001f	c2 04 00	 ret	 4
??B?$coroutine_handle@Upromise_type@?$Generator@H@@@std@@QBE?AU?$coroutine_handle@X@1@XZ ENDP ; std::coroutine_handle<Generator<int>::promise_type>::operator std::coroutine_handle<void>
_TEXT	ENDS
; Function compile flags: /Odtp
; File C:\Program Files\Microsoft Visual Studio\2022\Community\VC\Tools\MSVC\14.43.34808\include\coroutine
;	COMDAT ?from_address@?$coroutine_handle@Upromise_type@?$Generator@H@@@std@@SA?AU12@QAX@Z
_TEXT	SEGMENT
___$ReturnUdt$ = 8					; size = 4
__Addr$ = 12						; size = 4
?from_address@?$coroutine_handle@Upromise_type@?$Generator@H@@@std@@SA?AU12@QAX@Z PROC ; std::coroutine_handle<Generator<int>::promise_type>::from_address, COMDAT

; 117  :     _NODISCARD static constexpr coroutine_handle from_address(void* const _Addr) noexcept { // strengthened

  00000	55		 push	 ebp
  00001	8b ec		 mov	 ebp, esp

; 118  :         coroutine_handle _Result;

  00003	8b 4d 08	 mov	 ecx, DWORD PTR ___$ReturnUdt$[ebp]
  00006	e8 00 00 00 00	 call	 ??0?$coroutine_handle@Upromise_type@?$Generator@H@@@std@@QAE@XZ ; std::coroutine_handle<Generator<int>::promise_type>::coroutine_handle<Generator<int>::promise_type>

; 119  :         _Result._Ptr = _Addr;

  0000b	8b 45 08	 mov	 eax, DWORD PTR ___$ReturnUdt$[ebp]
  0000e	8b 4d 0c	 mov	 ecx, DWORD PTR __Addr$[ebp]
  00011	89 08		 mov	 DWORD PTR [eax], ecx

; 120  :         return _Result;

  00013	8b 45 08	 mov	 eax, DWORD PTR ___$ReturnUdt$[ebp]

; 121  :     }

  00016	5d		 pop	 ebp
  00017	c3		 ret	 0
?from_address@?$coroutine_handle@Upromise_type@?$Generator@H@@@std@@SA?AU12@QAX@Z ENDP ; std::coroutine_handle<Generator<int>::promise_type>::from_address
_TEXT	ENDS
; Function compile flags: /Odtp
; File C:\Program Files\Microsoft Visual Studio\2022\Community\VC\Tools\MSVC\14.43.34808\include\coroutine
;	COMDAT ?from_promise@?$coroutine_handle@Upromise_type@?$Generator@H@@@std@@SA?AU12@AAUpromise_type@?$Generator@H@@@Z
_TEXT	SEGMENT
__Frame_ptr$ = -8					; size = 4
__Prom_ptr$ = -4					; size = 4
___$ReturnUdt$ = 8					; size = 4
__Prom$ = 12						; size = 4
?from_promise@?$coroutine_handle@Upromise_type@?$Generator@H@@@std@@SA?AU12@AAUpromise_type@?$Generator@H@@@Z PROC ; std::coroutine_handle<Generator<int>::promise_type>::from_promise, COMDAT

; 100  :     _NODISCARD static coroutine_handle from_promise(_CoroPromise& _Prom) noexcept { // strengthened

  00000	55		 push	 ebp
  00001	8b ec		 mov	 ebp, esp
  00003	83 ec 08	 sub	 esp, 8

; 101  :         const auto _Prom_ptr  = const_cast<void*>(static_cast<const volatile void*>(_STD addressof(_Prom)));

  00006	8b 45 0c	 mov	 eax, DWORD PTR __Prom$[ebp]
  00009	50		 push	 eax
  0000a	e8 00 00 00 00	 call	 ??$addressof@Upromise_type@?$Generator@H@@@std@@YAPAUpromise_type@?$Generator@H@@AAU12@@Z ; std::addressof<Generator<int>::promise_type>
  0000f	83 c4 04	 add	 esp, 4
  00012	89 45 fc	 mov	 DWORD PTR __Prom_ptr$[ebp], eax

; 102  :         const auto _Frame_ptr = __builtin_coro_promise(_Prom_ptr, 0, true);

  00015	8b 4d fc	 mov	 ecx, DWORD PTR __Prom_ptr$[ebp]
  00018	83 e9 08	 sub	 ecx, 8
  0001b	89 4d f8	 mov	 DWORD PTR __Frame_ptr$[ebp], ecx

; 103  :         coroutine_handle _Result;

  0001e	8b 4d 08	 mov	 ecx, DWORD PTR ___$ReturnUdt$[ebp]
  00021	e8 00 00 00 00	 call	 ??0?$coroutine_handle@Upromise_type@?$Generator@H@@@std@@QAE@XZ ; std::coroutine_handle<Generator<int>::promise_type>::coroutine_handle<Generator<int>::promise_type>

; 104  :         _Result._Ptr = _Frame_ptr;

  00026	8b 55 08	 mov	 edx, DWORD PTR ___$ReturnUdt$[ebp]
  00029	8b 45 f8	 mov	 eax, DWORD PTR __Frame_ptr$[ebp]
  0002c	89 02		 mov	 DWORD PTR [edx], eax

; 105  :         return _Result;

  0002e	8b 45 08	 mov	 eax, DWORD PTR ___$ReturnUdt$[ebp]

; 106  :     }

  00031	8b e5		 mov	 esp, ebp
  00033	5d		 pop	 ebp
  00034	c3		 ret	 0
?from_promise@?$coroutine_handle@Upromise_type@?$Generator@H@@@std@@SA?AU12@AAUpromise_type@?$Generator@H@@@Z ENDP ; std::coroutine_handle<Generator<int>::promise_type>::from_promise
_TEXT	ENDS
; Function compile flags: /Odtp
; File C:\Program Files\Microsoft Visual Studio\2022\Community\VC\Tools\MSVC\14.43.34808\include\coroutine
;	COMDAT ??0?$coroutine_handle@Upromise_type@?$Generator@H@@@std@@QAE@XZ
_TEXT	SEGMENT
_this$ = -4						; size = 4
??0?$coroutine_handle@Upromise_type@?$Generator@H@@@std@@QAE@XZ PROC ; std::coroutine_handle<Generator<int>::promise_type>::coroutine_handle<Generator<int>::promise_type>, COMDAT
; _this$ = ecx

; 97   :     constexpr coroutine_handle() noexcept = default;

  00000	55		 push	 ebp
  00001	8b ec		 mov	 ebp, esp
  00003	51		 push	 ecx
  00004	89 4d fc	 mov	 DWORD PTR _this$[ebp], ecx

; 98   :     constexpr coroutine_handle(nullptr_t) noexcept {}
; 99   : 
; 100  :     _NODISCARD static coroutine_handle from_promise(_CoroPromise& _Prom) noexcept { // strengthened
; 101  :         const auto _Prom_ptr  = const_cast<void*>(static_cast<const volatile void*>(_STD addressof(_Prom)));
; 102  :         const auto _Frame_ptr = __builtin_coro_promise(_Prom_ptr, 0, true);
; 103  :         coroutine_handle _Result;
; 104  :         _Result._Ptr = _Frame_ptr;
; 105  :         return _Result;
; 106  :     }
; 107  : 
; 108  :     coroutine_handle& operator=(nullptr_t) noexcept {
; 109  :         _Ptr = nullptr;
; 110  :         return *this;
; 111  :     }
; 112  : 
; 113  :     _NODISCARD constexpr void* address() const noexcept {
; 114  :         return _Ptr;
; 115  :     }
; 116  : 
; 117  :     _NODISCARD static constexpr coroutine_handle from_address(void* const _Addr) noexcept { // strengthened
; 118  :         coroutine_handle _Result;
; 119  :         _Result._Ptr = _Addr;
; 120  :         return _Result;
; 121  :     }
; 122  : 
; 123  :     constexpr operator coroutine_handle<>() const noexcept {
; 124  :         return coroutine_handle<>::from_address(_Ptr);
; 125  :     }
; 126  : 
; 127  :     constexpr explicit operator bool() const noexcept {
; 128  :         return _Ptr != nullptr;
; 129  :     }
; 130  : 
; 131  :     _NODISCARD bool done() const noexcept { // strengthened
; 132  :         return __builtin_coro_done(_Ptr);
; 133  :     }
; 134  : 
; 135  :     void operator()() const {
; 136  :         __builtin_coro_resume(_Ptr);
; 137  :     }
; 138  : 
; 139  :     void resume() const {
; 140  :         __builtin_coro_resume(_Ptr);
; 141  :     }
; 142  : 
; 143  :     void destroy() const noexcept { // strengthened
; 144  :         __builtin_coro_destroy(_Ptr);
; 145  :     }
; 146  : 
; 147  :     _NODISCARD _CoroPromise& promise() const noexcept { // strengthened
; 148  :         return *reinterpret_cast<_CoroPromise*>(__builtin_coro_promise(_Ptr, 0, false));
; 149  :     }
; 150  : 
; 151  : private:
; 152  :     void* _Ptr = nullptr;

  00007	8b 45 fc	 mov	 eax, DWORD PTR _this$[ebp]
  0000a	c7 00 00 00 00
	00		 mov	 DWORD PTR [eax], 0

; 97   :     constexpr coroutine_handle() noexcept = default;

  00010	8b 45 fc	 mov	 eax, DWORD PTR _this$[ebp]
  00013	8b e5		 mov	 esp, ebp
  00015	5d		 pop	 ebp
  00016	c3		 ret	 0
??0?$coroutine_handle@Upromise_type@?$Generator@H@@@std@@QAE@XZ ENDP ; std::coroutine_handle<Generator<int>::promise_type>::coroutine_handle<Generator<int>::promise_type>
_TEXT	ENDS
; Function compile flags: /Odtp
; File C:\Users\hayah\source\repos\Project2\Project2\co.cpp
_TEXT	SEGMENT
tv179 = -60						; size = 4
$T1 = -56						; size = 4
$T2 = -52						; size = 4
tv232 = -48						; size = 4
tv67 = -44						; size = 4
tv176 = -40						; size = 4
tv173 = -36						; size = 4
tv159 = -32						; size = 4
tv152 = -28						; size = 4
___coro_heap_ellision$ = -24				; size = 4
tv143 = -20						; size = 4
$T3 = -16						; size = 4
tv145 = -12						; size = 4
tv73 = -8						; size = 4
___coro_frame_ptr$ = -4					; size = 4
___$ReturnUdt$ = 8					; size = 4
_$FP2$ = 12						; size = 4
_$FP3$ = 16						; size = 4
?begin_tx@@YA?AU?$Generator@H@@PAUThreadGC@@PAUCoroutineQueue@@@Z PROC ; begin_tx

; 24   : Generator<int> begin_tx(ThreadGC*, CoroutineQueue*) {

  00000	55		 push	 ebp
  00001	8b ec		 mov	 ebp, esp
  00003	83 ec 3c	 sub	 esp, 60			; 0000003cH
  00006	33 c0		 xor	 eax, eax
  00008	74 0e		 je	 SHORT $LN5@begin_tx
  0000a	c7 45 d4 38 00
	00 00		 mov	 DWORD PTR tv67[ebp], 56	; 00000038H
  00011	33 c9		 xor	 ecx, ecx
  00013	89 4d f8	 mov	 DWORD PTR tv73[ebp], ecx
  00016	eb 0d		 jmp	 SHORT $LN6@begin_tx
$LN5@begin_tx:
  00018	6a 38		 push	 56			; 00000038H
  0001a	e8 00 00 00 00	 call	 ??2@YAPAXI@Z		; operator new
  0001f	83 c4 04	 add	 esp, 4
  00022	89 45 f8	 mov	 DWORD PTR tv73[ebp], eax
$LN6@begin_tx:
  00025	8b 55 f8	 mov	 edx, DWORD PTR tv73[ebp]
  00028	89 55 fc	 mov	 DWORD PTR ___coro_frame_ptr$[ebp], edx
  0002b	33 c0		 xor	 eax, eax
  0002d	89 45 e8	 mov	 DWORD PTR ___coro_heap_ellision$[ebp], eax
  00030	b9 08 00 00 00	 mov	 ecx, 8
  00035	83 f9 08	 cmp	 ecx, 8
  00038	76 35		 jbe	 SHORT $$__resumable_init_label$1
  0003a	8b 55 fc	 mov	 edx, DWORD PTR ___coro_frame_ptr$[ebp]
  0003d	89 55 f0	 mov	 DWORD PTR $T3[ebp], edx
  00040	b8 08 00 00 00	 mov	 eax, 8
  00045	8b 4d fc	 mov	 ecx, DWORD PTR ___coro_frame_ptr$[ebp]
  00048	8d 54 01 0b	 lea	 edx, DWORD PTR [ecx+eax+11]
  0004c	b8 08 00 00 00	 mov	 eax, 8
  00051	83 e8 01	 sub	 eax, 1
  00054	f7 d0		 not	 eax
  00056	23 d0		 and	 edx, eax
  00058	83 ea 08	 sub	 edx, 8
  0005b	89 55 fc	 mov	 DWORD PTR ___coro_frame_ptr$[ebp], edx
  0005e	b9 04 00 00 00	 mov	 ecx, 4
  00063	6b d1 ff	 imul	 edx, ecx, -1
  00066	8b 45 fc	 mov	 eax, DWORD PTR ___coro_frame_ptr$[ebp]
  00069	8b 4d f0	 mov	 ecx, DWORD PTR $T3[ebp]
  0006c	89 0c 10	 mov	 DWORD PTR [eax+edx], ecx
$$__resumable_init_label$1:
  0006f	8b 55 fc	 mov	 edx, DWORD PTR ___coro_frame_ptr$[ebp]
  00072	c7 42 04 00 00
	00 00		 mov	 DWORD PTR [edx+4], OFFSET ?begin_tx$_DestroyCoro$2@@YA?AU?$Generator@H@@PAUThreadGC@@PAUCoroutineQueue@@@Z ; begin_tx$_DestroyCoro$2
  00079	8b 45 fc	 mov	 eax, DWORD PTR ___coro_frame_ptr$[ebp]
  0007c	c7 00 00 00 00
	00		 mov	 DWORD PTR [eax], OFFSET ?begin_tx$_ResumeCoro$1@@YA?AU?$Generator@H@@PAUThreadGC@@PAUCoroutineQueue@@@Z ; begin_tx$_ResumeCoro$1
  00082	8b 4d fc	 mov	 ecx, DWORD PTR ___coro_frame_ptr$[ebp]
  00085	83 c1 0c	 add	 ecx, 12			; 0000000cH
  00088	89 4d ec	 mov	 DWORD PTR tv143[ebp], ecx
  0008b	8b 55 10	 mov	 edx, DWORD PTR _$FP3$[ebp]
  0008e	52		 push	 edx
  0008f	8b 45 0c	 mov	 eax, DWORD PTR _$FP2$[ebp]
  00092	50		 push	 eax
  00093	8b 4d ec	 mov	 ecx, DWORD PTR tv143[ebp]
  00096	e8 00 00 00 00	 call	 ??0<parameters>@?2??begin_tx@@YA?AU?$Generator@H@@PAUThreadGC@@PAUCoroutineQueue@@@Z@QAE@01@Z ; `begin_tx'::`3'::<parameters>::<parameters>
  0009b	83 7d e8 00	 cmp	 DWORD PTR ___coro_heap_ellision$[ebp], 0
  0009f	74 09		 je	 SHORT $LN11@begin_tx
  000a1	c7 45 f4 00 00
	00 00		 mov	 DWORD PTR tv145[ebp], 0
  000a8	eb 07		 jmp	 SHORT $LN12@begin_tx
$LN11@begin_tx:
  000aa	c7 45 f4 00 00
	01 00		 mov	 DWORD PTR tv145[ebp], 65536 ; 00010000H
$LN12@begin_tx:
  000b1	8b 4d f4	 mov	 ecx, DWORD PTR tv145[ebp]
  000b4	83 c1 02	 add	 ecx, 2
  000b7	8b 55 fc	 mov	 edx, DWORD PTR ___coro_frame_ptr$[ebp]
  000ba	89 4a 14	 mov	 DWORD PTR [edx+20], ecx

; 25   :     co_return;
; 26   : }

  000bd	8b 45 fc	 mov	 eax, DWORD PTR ___coro_frame_ptr$[ebp]
  000c0	83 c0 08	 add	 eax, 8
  000c3	89 45 e4	 mov	 DWORD PTR tv152[ebp], eax
  000c6	8b 4d 08	 mov	 ecx, DWORD PTR ___$ReturnUdt$[ebp]
  000c9	51		 push	 ecx
  000ca	8b 4d e4	 mov	 ecx, DWORD PTR tv152[ebp]
  000cd	e8 00 00 00 00	 call	 ?get_return_object@promise_type@?$Generator@H@@QAE?AU2@XZ ; Generator<int>::promise_type::get_return_object
  000d2	8b 55 fc	 mov	 edx, DWORD PTR ___coro_frame_ptr$[ebp]
  000d5	83 c2 08	 add	 edx, 8
  000d8	89 55 e0	 mov	 DWORD PTR tv159[ebp], edx
  000db	8b 45 fc	 mov	 eax, DWORD PTR ___coro_frame_ptr$[ebp]
  000de	83 c0 09	 add	 eax, 9
  000e1	50		 push	 eax
  000e2	8b 4d e0	 mov	 ecx, DWORD PTR tv159[ebp]
  000e5	e8 00 00 00 00	 call	 ?initial_suspend@promise_type@?$Generator@H@@QAE?AUsuspend_always@std@@XZ ; Generator<int>::promise_type::initial_suspend
  000ea	90		 npad	 1
  000eb	8b 4d fc	 mov	 ecx, DWORD PTR ___coro_frame_ptr$[ebp]
  000ee	83 c1 09	 add	 ecx, 9
  000f1	e8 00 00 00 00	 call	 ?await_ready@suspend_always@std@@QBE_NXZ ; std::suspend_always::await_ready
  000f6	0f b6 c8	 movzx	 ecx, al
  000f9	85 c9		 test	 ecx, ecx
  000fb	74 15		 je	 SHORT $LN13@begin_tx
  000fd	c7 45 d0 00 00
	00 00		 mov	 DWORD PTR tv232[ebp], 0
  00104	8b 55 fc	 mov	 edx, DWORD PTR ___coro_frame_ptr$[ebp]
  00107	52		 push	 edx
  00108	e8 00 00 00 00	 call	 ?begin_tx$_ResumeCoro$1@@YA?AU?$Generator@H@@PAUThreadGC@@PAUCoroutineQueue@@@Z ; begin_tx$_ResumeCoro$1
  0010d	83 c4 04	 add	 esp, 4
  00110	eb 3a		 jmp	 SHORT $LN14@begin_tx
$LN13@begin_tx:
  00112	8b 45 fc	 mov	 eax, DWORD PTR ___coro_frame_ptr$[ebp]
  00115	83 c0 09	 add	 eax, 9
  00118	89 45 d8	 mov	 DWORD PTR tv176[ebp], eax
  0011b	8b 4d fc	 mov	 ecx, DWORD PTR ___coro_frame_ptr$[ebp]
  0011e	51		 push	 ecx
  0011f	8d 55 cc	 lea	 edx, DWORD PTR $T2[ebp]
  00122	52		 push	 edx
  00123	e8 00 00 00 00	 call	 ?from_address@?$coroutine_handle@Upromise_type@?$Generator@H@@@std@@SA?AU12@QAX@Z ; std::coroutine_handle<Generator<int>::promise_type>::from_address
  00128	83 c4 08	 add	 esp, 8
  0012b	89 45 dc	 mov	 DWORD PTR tv173[ebp], eax
  0012e	8d 45 c8	 lea	 eax, DWORD PTR $T1[ebp]
  00131	50		 push	 eax
  00132	8b 4d dc	 mov	 ecx, DWORD PTR tv173[ebp]
  00135	e8 00 00 00 00	 call	 ??B?$coroutine_handle@Upromise_type@?$Generator@H@@@std@@QBE?AU?$coroutine_handle@X@1@XZ ; std::coroutine_handle<Generator<int>::promise_type>::operator std::coroutine_handle<void>
  0013a	8b 08		 mov	 ecx, DWORD PTR [eax]
  0013c	51		 push	 ecx
  0013d	8b 4d d8	 mov	 ecx, DWORD PTR tv176[ebp]
  00140	e8 00 00 00 00	 call	 ?await_suspend@suspend_always@std@@QBEXU?$coroutine_handle@X@2@@Z ; std::suspend_always::await_suspend
  00145	c7 45 c4 00 00
	00 00		 mov	 DWORD PTR tv179[ebp], 0
$LN14@begin_tx:
  0014c	8b 45 08	 mov	 eax, DWORD PTR ___$ReturnUdt$[ebp]
  0014f	8b e5		 mov	 esp, ebp
  00151	5d		 pop	 ebp
  00152	c3		 ret	 0
?begin_tx@@YA?AU?$Generator@H@@PAUThreadGC@@PAUCoroutineQueue@@@Z ENDP ; begin_tx
_TEXT	ENDS
; Function compile flags: /Odtp
; File C:\Program Files\Microsoft Visual Studio\2022\Community\VC\Tools\MSVC\14.43.34808\include\coroutine
;	COMDAT ?await_resume@suspend_always@std@@QBEXXZ
_TEXT	SEGMENT
_this$ = -4						; size = 4
?await_resume@suspend_always@std@@QBEXXZ PROC		; std::suspend_always::await_resume, COMDAT
; _this$ = ecx

; 253  :     constexpr void await_resume() const noexcept {}

  00000	55		 push	 ebp
  00001	8b ec		 mov	 ebp, esp
  00003	51		 push	 ecx
  00004	89 4d fc	 mov	 DWORD PTR _this$[ebp], ecx
  00007	8b e5		 mov	 esp, ebp
  00009	5d		 pop	 ebp
  0000a	c3		 ret	 0
?await_resume@suspend_always@std@@QBEXXZ ENDP		; std::suspend_always::await_resume
_TEXT	ENDS
; Function compile flags: /Odtp
; File C:\Program Files\Microsoft Visual Studio\2022\Community\VC\Tools\MSVC\14.43.34808\include\coroutine
;	COMDAT ?await_suspend@suspend_always@std@@QBEXU?$coroutine_handle@X@2@@Z
_TEXT	SEGMENT
_this$ = -4						; size = 4
___formal$ = 8						; size = 4
?await_suspend@suspend_always@std@@QBEXU?$coroutine_handle@X@2@@Z PROC ; std::suspend_always::await_suspend, COMDAT
; _this$ = ecx

; 252  :     constexpr void await_suspend(coroutine_handle<>) const noexcept {}

  00000	55		 push	 ebp
  00001	8b ec		 mov	 ebp, esp
  00003	51		 push	 ecx
  00004	89 4d fc	 mov	 DWORD PTR _this$[ebp], ecx
  00007	8b e5		 mov	 esp, ebp
  00009	5d		 pop	 ebp
  0000a	c2 04 00	 ret	 4
?await_suspend@suspend_always@std@@QBEXU?$coroutine_handle@X@2@@Z ENDP ; std::suspend_always::await_suspend
_TEXT	ENDS
; Function compile flags: /Odtp
; File C:\Program Files\Microsoft Visual Studio\2022\Community\VC\Tools\MSVC\14.43.34808\include\coroutine
;	COMDAT ?await_ready@suspend_always@std@@QBE_NXZ
_TEXT	SEGMENT
_this$ = -4						; size = 4
?await_ready@suspend_always@std@@QBE_NXZ PROC		; std::suspend_always::await_ready, COMDAT
; _this$ = ecx

; 248  :     _NODISCARD constexpr bool await_ready() const noexcept {

  00000	55		 push	 ebp
  00001	8b ec		 mov	 ebp, esp
  00003	51		 push	 ecx
  00004	89 4d fc	 mov	 DWORD PTR _this$[ebp], ecx

; 249  :         return false;

  00007	32 c0		 xor	 al, al

; 250  :     }

  00009	8b e5		 mov	 esp, ebp
  0000b	5d		 pop	 ebp
  0000c	c3		 ret	 0
?await_ready@suspend_always@std@@QBE_NXZ ENDP		; std::suspend_always::await_ready
_TEXT	ENDS
; Function compile flags: /Odtp
; File C:\Program Files\Microsoft Visual Studio\2022\Community\VC\Tools\MSVC\14.43.34808\include\coroutine
;	COMDAT ?from_address@?$coroutine_handle@X@std@@SA?AU12@QAX@Z
_TEXT	SEGMENT
___$ReturnUdt$ = 8					; size = 4
__Addr$ = 12						; size = 4
?from_address@?$coroutine_handle@X@std@@SA?AU12@QAX@Z PROC ; std::coroutine_handle<void>::from_address, COMDAT

; 65   :     _NODISCARD static constexpr coroutine_handle from_address(void* const _Addr) noexcept { // strengthened

  00000	55		 push	 ebp
  00001	8b ec		 mov	 ebp, esp

; 66   :         coroutine_handle _Result;

  00003	8b 4d 08	 mov	 ecx, DWORD PTR ___$ReturnUdt$[ebp]
  00006	e8 00 00 00 00	 call	 ??0?$coroutine_handle@X@std@@QAE@XZ ; std::coroutine_handle<void>::coroutine_handle<void>

; 67   :         _Result._Ptr = _Addr;

  0000b	8b 45 08	 mov	 eax, DWORD PTR ___$ReturnUdt$[ebp]
  0000e	8b 4d 0c	 mov	 ecx, DWORD PTR __Addr$[ebp]
  00011	89 08		 mov	 DWORD PTR [eax], ecx

; 68   :         return _Result;

  00013	8b 45 08	 mov	 eax, DWORD PTR ___$ReturnUdt$[ebp]

; 69   :     }

  00016	5d		 pop	 ebp
  00017	c3		 ret	 0
?from_address@?$coroutine_handle@X@std@@SA?AU12@QAX@Z ENDP ; std::coroutine_handle<void>::from_address
_TEXT	ENDS
; Function compile flags: /Odtp
; File C:\Program Files\Microsoft Visual Studio\2022\Community\VC\Tools\MSVC\14.43.34808\include\coroutine
;	COMDAT ??0?$coroutine_handle@X@std@@QAE@XZ
_TEXT	SEGMENT
_this$ = -4						; size = 4
??0?$coroutine_handle@X@std@@QAE@XZ PROC		; std::coroutine_handle<void>::coroutine_handle<void>, COMDAT
; _this$ = ecx

; 53   :     constexpr coroutine_handle() noexcept = default;

  00000	55		 push	 ebp
  00001	8b ec		 mov	 ebp, esp
  00003	51		 push	 ecx
  00004	89 4d fc	 mov	 DWORD PTR _this$[ebp], ecx

; 54   :     constexpr coroutine_handle(nullptr_t) noexcept {}
; 55   : 
; 56   :     coroutine_handle& operator=(nullptr_t) noexcept {
; 57   :         _Ptr = nullptr;
; 58   :         return *this;
; 59   :     }
; 60   : 
; 61   :     _NODISCARD constexpr void* address() const noexcept {
; 62   :         return _Ptr;
; 63   :     }
; 64   : 
; 65   :     _NODISCARD static constexpr coroutine_handle from_address(void* const _Addr) noexcept { // strengthened
; 66   :         coroutine_handle _Result;
; 67   :         _Result._Ptr = _Addr;
; 68   :         return _Result;
; 69   :     }
; 70   : 
; 71   :     constexpr explicit operator bool() const noexcept {
; 72   :         return _Ptr != nullptr;
; 73   :     }
; 74   : 
; 75   :     _NODISCARD bool done() const noexcept { // strengthened
; 76   :         return __builtin_coro_done(_Ptr);
; 77   :     }
; 78   : 
; 79   :     void operator()() const {
; 80   :         __builtin_coro_resume(_Ptr);
; 81   :     }
; 82   : 
; 83   :     void resume() const {
; 84   :         __builtin_coro_resume(_Ptr);
; 85   :     }
; 86   : 
; 87   :     void destroy() const noexcept { // strengthened
; 88   :         __builtin_coro_destroy(_Ptr);
; 89   :     }
; 90   : 
; 91   : private:
; 92   :     void* _Ptr = nullptr;

  00007	8b 45 fc	 mov	 eax, DWORD PTR _this$[ebp]
  0000a	c7 00 00 00 00
	00		 mov	 DWORD PTR [eax], 0

; 53   :     constexpr coroutine_handle() noexcept = default;

  00010	8b 45 fc	 mov	 eax, DWORD PTR _this$[ebp]
  00013	8b e5		 mov	 esp, ebp
  00015	5d		 pop	 ebp
  00016	c3		 ret	 0
??0?$coroutine_handle@X@std@@QAE@XZ ENDP		; std::coroutine_handle<void>::coroutine_handle<void>
_TEXT	ENDS
END
